target datalayout = "e-m:e-p270:32:32-p271:32:32-p272:64:64-i64:64-i128:128-f80:128-n8:16:32:64-S128"
target triple = "x86_64-pc-linux-gnu"

%struct.archive_entry = type { ptr, ptr, i32, %struct.aest, i32, %struct.archive_mstring, i64, i64, %struct.archive_mstring, %struct.archive_mstring, %struct.archive_mstring, %struct.archive_mstring, %struct.archive_mstring, i8, ptr, i64, %struct.ae_digest, %struct.archive_acl, ptr, ptr, ptr, ptr, ptr, [12 x i8], i32 }
%struct.aest = type { i64, i32, i64, i32, i64, i32, i64, i32, i64, i64, i32, i64, i64, i32, i64, i64, i64, i32, i64, i64, i64 }
%struct.archive_mstring = type { %struct.archive_string, %struct.archive_string, %struct.archive_wstring, %struct.archive_string, i32 }
%struct.archive_wstring = type { ptr, i64, i64 }
%struct.archive_string = type { ptr, i64, i64 }
%struct.ae_digest = type { [16 x i8], [20 x i8], [20 x i8], [32 x i8], [48 x i8], [64 x i8] }
%struct.archive_acl = type { i32, ptr, ptr, i32, ptr, ptr, i32 }

; Function Attrs: nounwind uwtable
define dso_local i32 @_archive_entry_symlink_l(ptr noundef %0, ptr noundef %1, ptr noundef %2, ptr noundef %3) #0 {
  %5 = alloca i32, align 4
  %6 = alloca ptr, align 8
  %7 = alloca ptr, align 8
  %8 = alloca ptr, align 8
  %9 = alloca ptr, align 8
  store ptr %0, ptr %6, align 8, !tbaa !4
  store ptr %1, ptr %7, align 8, !tbaa !80
  store ptr %2, ptr %8, align 8, !tbaa !54
  store ptr %3, ptr %9, align 8, !tbaa !82
  %10 = load ptr, ptr %6, align 8, !tbaa !4
  %11 = getelementptr inbounds nuw %struct.archive_entry, ptr %10, i32 0, i32 4
  %12 = load i32, ptr %11, align 8, !tbaa !35
  %13 = and i32 %12, 2
  %14 = icmp eq i32 %13, 0
  br i1 %14, label %15, label %18

15:                                               ; preds = %4
  %16 = load ptr, ptr %7, align 8, !tbaa !80
  store ptr null, ptr %16, align 8, !tbaa !67
  %17 = load ptr, ptr %8, align 8, !tbaa !54
  store i64 0, ptr %17, align 8, !tbaa !27
  store i32 0, ptr %5, align 4
  br label %28

18:                                               ; preds = %4
  %19 = load ptr, ptr %6, align 8, !tbaa !4
  %20 = getelementptr inbounds nuw %struct.archive_entry, ptr %19, i32 0, i32 0
  %21 = load ptr, ptr %20, align 8, !tbaa !30
  %22 = load ptr, ptr %6, align 8, !tbaa !4
  %23 = getelementptr inbounds nuw %struct.archive_entry, ptr %22, i32 0, i32 9
  %24 = load ptr, ptr %7, align 8, !tbaa !80
  %25 = load ptr, ptr %8, align 8, !tbaa !54
  %26 = load ptr, ptr %9, align 8, !tbaa !82
  %27 = call i32 @archive_mstring_get_mbs_l(ptr noundef %21, ptr noundef %23, ptr noundef %24, ptr noundef %25, ptr noundef %26)
  store i32 %27, ptr %5, align 4
  br label %28

28:                                               ; preds = %18, %15
  %29 = load i32, ptr %5, align 4
  ret i32 %29
}